target datalayout = "e-m:e-p270:32:32-p271:32:32-p272:64:64-i64:64-i128:128-f80:128-n8:16:32:64-S128"
target triple = "x86_64-pc-linux-gnu"

@.str = private unnamed_addr constant [5 x i8] c"Epan\00", align 1
@.str.1 = private unnamed_addr constant [13 x i8] c"epan/prefs.c\00", align 1
@protocols_module = global ptr null, align 8
@__func__.prefs_register_protocol = private unnamed_addr constant [24 x i8] c"prefs_register_protocol\00", align 1
@.str.4 = private unnamed_addr constant [66 x i8] c"Protocol preferences being registered with an invalid protocol ID\00", align 1

; Function Attrs: null_pointer_is_valid sspstrong uwtable
define internal ptr @prefs_register_module(ptr noundef %0, ptr noundef %1, ptr noundef %2, ptr noundef %3, ptr noundef %4, ptr noundef %5, i1 noundef zeroext %6) #1 {
  %8 = alloca ptr, align 8
  %9 = alloca ptr, align 8
  %10 = alloca ptr, align 8
  %11 = alloca ptr, align 8
  %12 = alloca ptr, align 8
  %13 = alloca ptr, align 8
  %14 = alloca i8, align 1
  store ptr %0, ptr %8, align 8
  store ptr %1, ptr %9, align 8
  store ptr %2, ptr %10, align 8
  store ptr %3, ptr %11, align 8
  store ptr %4, ptr %12, align 8
  store ptr %5, ptr %13, align 8
  %15 = zext i1 %6 to i8
  store i8 %15, ptr %14, align 1
  %16 = load ptr, ptr %8, align 8
  %17 = load ptr, ptr %9, align 8
  %18 = load ptr, ptr %10, align 8
  %19 = load ptr, ptr %11, align 8
  %20 = load ptr, ptr %12, align 8
  %21 = load ptr, ptr %13, align 8
  %22 = load i8, ptr %14, align 1, !range !6, !noundef !7
  %23 = trunc i8 %22 to i1
  %24 = call ptr @prefs_register_module_or_subtree(ptr noundef %16, ptr noundef %17, ptr noundef %18, ptr noundef %19, ptr noundef %20, i1 noundef zeroext false, ptr noundef %21, i1 noundef zeroext %23)
  ret ptr %24
}

; Function Attrs: null_pointer_is_valid sspstrong uwtable
define ptr @prefs_register_protocol(i32 noundef %0, ptr noundef %1) #1 {
  %3 = alloca i32, align 4
  %4 = alloca ptr, align 8
  %5 = alloca ptr, align 8
  store i32 %0, ptr %3, align 4
  store ptr %1, ptr %4, align 8
  call void @llvm.lifetime.start.p0(i64 8, ptr %5) #17
  %6 = load ptr, ptr @protocols_module, align 8
  %7 = icmp eq ptr %6, null
  br i1 %7, label %8, label %9

8:                                                ; preds = %2
  call void @pre_init_prefs()
  call void @prefs_register_modules()
  br label %9

9:                                                ; preds = %8, %2
  %10 = load i32, ptr %3, align 4
  %11 = call ptr @find_protocol_by_id(i32 noundef %10)
  store ptr %11, ptr %5, align 8
  %12 = load ptr, ptr %5, align 8
  %13 = icmp eq ptr %12, null
  br i1 %13, label %14, label %15

14:                                               ; preds = %9
  call void (ptr, i32, ptr, i64, ptr, ptr, ...) @ws_log_fatal_full(ptr noundef @.str, i32 noundef 7, ptr noundef @.str.1, i64 noundef 651, ptr noundef @__func__.prefs_register_protocol, ptr noundef @.str.4) #18
  unreachable

15:                                               ; preds = %9
  %16 = load ptr, ptr @protocols_module, align 8
  %17 = load i32, ptr %3, align 4
  %18 = call ptr @proto_get_protocol_filter_name(i32 noundef %17)
  %19 = load ptr, ptr %5, align 8
  %20 = call ptr @proto_get_protocol_short_name(ptr noundef %19)
  %21 = load i32, ptr %3, align 4
  %22 = call ptr @proto_get_protocol_name(i32 noundef %21)
  %23 = load ptr, ptr %4, align 8
  %24 = call ptr @prefs_register_module(ptr noundef %16, ptr noundef %18, ptr noundef %20, ptr noundef %22, ptr noundef null, ptr noundef %23, i1 noundef zeroext true)
  call void @llvm.lifetime.end.p0(i64 8, ptr %5) #17
  ret ptr %24
}