; Function Attrs: null_pointer_is_valid sspstrong uwtable
define ptr @prefs_register_protocol(i32 noundef %0, ptr noundef %1) local_unnamed_addr #1 {
  %3 = load ptr, ptr @protocols_module, align 8
  %4 = icmp eq ptr %3, null
  br i1 %4, label %5, label %6

5:                                                ; preds = %2
  tail call fastcc void @pre_init_prefs()
  tail call fastcc void @prefs_register_modules()
  br label %6

6:                                                ; preds = %5, %2
  %7 = tail call ptr @find_protocol_by_id(i32 noundef %0)
  %8 = icmp eq ptr %7, null
  br i1 %8, label %9, label %10

9:                                                ; preds = %6
  tail call void (ptr, i32, ptr, i64, ptr, ptr, ...) @ws_log_fatal_full(ptr noundef nonnull @.str, i32 noundef 7, ptr noundef nonnull @.str.1, i64 noundef 651, ptr noundef nonnull @__func__.prefs_register_protocol, ptr noundef nonnull @.str.4) #26
  unreachable

10:                                               ; preds = %6
  %11 = load ptr, ptr @protocols_module, align 8
  %12 = tail call ptr @proto_get_protocol_filter_name(i32 noundef %0)
  %13 = tail call ptr @proto_get_protocol_short_name(ptr noundef nonnull %7)
  %14 = tail call ptr @proto_get_protocol_name(i32 noundef %0)
  %15 = tail call fastcc ptr @prefs_register_module_or_subtree(ptr noundef %11, ptr noundef %12, ptr noundef %13, ptr noundef %14, ptr noundef null, i1 noundef zeroext false, ptr noundef %1, i1 noundef zeroext true)
  ret ptr %15
}